target datalayout = "e-m:e-p270:32:32-p271:32:32-p272:64:64-i64:64-i128:128-f80:128-n8:16:32:64-S128"
target triple = "x86_64-pc-linux-gnu"

%struct.IDAMemRec = type { ptr, double, ptr, ptr, i32, double, double, ptr, i32, i32, ptr, ptr, i32, i32, i32, ptr, ptr, i32, i32, double, double, ptr, i32, i32, i32, i32, ptr, ptr, i32, ptr, ptr, ptr, i32, double, i32, i32, double, ptr, ptr, ptr, i32, ptr, ptr, i32, i32, i32, double, ptr, ptr, ptr, [6 x ptr], [6 x double], [6 x double], [6 x double], [6 x double], [6 x double], ptr, ptr, ptr, ptr, ptr, ptr, ptr, ptr, ptr, ptr, ptr, ptr, ptr, ptr, ptr, ptr, ptr, [6 x ptr], ptr, ptr, ptr, ptr, [6 x ptr], ptr, ptr, ptr, ptr, ptr, ptr, ptr, ptr, ptr, ptr, ptr, ptr, ptr, ptr, ptr, ptr, [6 x ptr], ptr, ptr, ptr, ptr, ptr, double, ptr, ptr, i32, i32, i32, i32, i32, i32, i32, i32, double, double, double, i32, double, i32, i32, i32, i32, i32, double, double, double, double, double, double, double, double, double, double, double, double, double, double, double, double, double, i32, i32, i32, i32, i64, double, double, double, double, double, double, double, double, double, i64, i64, i64, i64, i64, i64, i64, i64, i64, i64, i64, i64, i64, i64, i64, i64, i64, i64, i64, i64, i64, i64, i64, i64, i64, i64, double, i32, i32, i32, i32, i32, i32, i32, i32, i32, i32, i32, i32, i32, ptr, i32, ptr, i32, ptr, i32, ptr, ptr, ptr, ptr, ptr, ptr, i32, i32, ptr, ptr, ptr, ptr, ptr, ptr, ptr, double, i32, i32, ptr, i32, ptr, ptr, double, double, double, ptr, ptr, ptr, double, double, i32, i32, i64, ptr, i32, ptr, [5 x double], ptr, ptr, i32, ptr, i32 }
%struct.IDAadjMemRec = type { double, double, i32, i32, double, i32, double, ptr, i32, ptr, i32, ptr, ptr, i32, i64, i64, ptr, i64, i32, ptr, ptr, ptr, ptr, i32, i32, i32, i32, i32, [6 x ptr], [6 x ptr], [6 x double], ptr, ptr, ptr, ptr }
%struct.IDABMemRec = type { i32, double, ptr, i32, i32, ptr, ptr, ptr, ptr, ptr, ptr, ptr, ptr, ptr, double, ptr, ptr, ptr }

@.str = private unnamed_addr constant [111 x i8] c"generated/home/dtcxzyw/WorkSpace/Projects/compilers/llvm-opt-benchmark/bench/sundials/sundials/src/idas/idaa.c\00", align 1
@.str.1 = private unnamed_addr constant [24 x i8] c"ida_mem = NULL illegal.\00", align 1
@.str.5 = private unnamed_addr constant [51 x i8] c"Illegal attempt to call before calling IDAadjInit.\00", align 1
@.str.11 = private unnamed_addr constant [88 x i8] c"The initial time tB0 is outside the interval over which the forward problem was solved.\00", align 1
@.str.12 = private unnamed_addr constant [25 x i8] c"Illegal value for which.\00", align 1
@__func__.IDAInitBS = private unnamed_addr constant [10 x i8] c"IDAInitBS\00", align 1
@.str.13 = private unnamed_addr constant [98 x i8] c"At least one backward problem requires sensitivities, but they were not stored for interpolation.\00", align 1

; Function Attrs: nounwind uwtable
define i32 @IDAInitBS(ptr noundef %0, i32 noundef %1, ptr noundef %2, double noundef %3, ptr noundef %4, ptr noundef %5) #0 {
  %7 = alloca i32, align 4
  %8 = alloca ptr, align 8
  %9 = alloca i32, align 4
  %10 = alloca ptr, align 8
  %11 = alloca double, align 8
  %12 = alloca ptr, align 8
  %13 = alloca ptr, align 8
  %14 = alloca ptr, align 8
  %15 = alloca ptr, align 8
  %16 = alloca ptr, align 8
  %17 = alloca ptr, align 8
  %18 = alloca i32, align 4
  %19 = alloca i32, align 4
  store ptr %0, ptr %8, align 8, !tbaa !3
  store i32 %1, ptr %9, align 4, !tbaa !9
  store ptr %2, ptr %10, align 8, !tbaa !3
  store double %3, ptr %11, align 8, !tbaa !70
  store ptr %4, ptr %12, align 8, !tbaa !71
  store ptr %5, ptr %13, align 8, !tbaa !71
  call void @llvm.lifetime.start.p0(i64 8, ptr %14) #6
  call void @llvm.lifetime.start.p0(i64 8, ptr %15) #6
  call void @llvm.lifetime.start.p0(i64 8, ptr %16) #6
  call void @llvm.lifetime.start.p0(i64 8, ptr %17) #6
  call void @llvm.lifetime.start.p0(i64 4, ptr %18) #6
  %20 = load ptr, ptr %8, align 8, !tbaa !3
  %21 = icmp eq ptr %20, null
  br i1 %21, label %22, label %23

22:                                               ; preds = %6
  call void (ptr, i32, i32, ptr, ptr, ptr, ...) @IDAProcessError(ptr noundef null, i32 noundef -20, i32 noundef 832, ptr noundef @__func__.IDAInitBS, ptr noundef @.str, ptr noundef @.str.1)
  store i32 -20, ptr %7, align 4
  store i32 1, ptr %19, align 4
  br label %119

23:                                               ; preds = %6
  %24 = load ptr, ptr %8, align 8, !tbaa !3
  store ptr %24, ptr %15, align 8, !tbaa !11
  %25 = load ptr, ptr %15, align 8, !tbaa !11
  %26 = getelementptr inbounds nuw %struct.IDAMemRec, ptr %25, i32 0, i32 240
  %27 = load i32, ptr %26, align 8, !tbaa !50
  %28 = icmp eq i32 %27, 0
  br i1 %28, label %29, label %31

29:                                               ; preds = %23
  %30 = load ptr, ptr %15, align 8, !tbaa !11
  call void (ptr, i32, i32, ptr, ptr, ptr, ...) @IDAProcessError(ptr noundef %30, i32 noundef -101, i32 noundef 843, ptr noundef @__func__.IDAInitBS, ptr noundef @.str, ptr noundef @.str.5)
  store i32 -101, ptr %7, align 4
  store i32 1, ptr %19, align 4
  br label %119

31:                                               ; preds = %23
  %32 = load ptr, ptr %15, align 8, !tbaa !11
  %33 = getelementptr inbounds nuw %struct.IDAMemRec, ptr %32, i32 0, i32 239
  %34 = load ptr, ptr %33, align 8, !tbaa !15
  store ptr %34, ptr %14, align 8, !tbaa !13
  %35 = load double, ptr %11, align 8, !tbaa !70
  %36 = load ptr, ptr %14, align 8, !tbaa !13
  %37 = getelementptr inbounds nuw %struct.IDAadjMemRec, ptr %36, i32 0, i32 0
  %38 = load double, ptr %37, align 8, !tbaa !83
  %39 = fcmp olt double %35, %38
  br i1 %39, label %46, label %40

40:                                               ; preds = %31
  %41 = load double, ptr %11, align 8, !tbaa !70
  %42 = load ptr, ptr %14, align 8, !tbaa !13
  %43 = getelementptr inbounds nuw %struct.IDAadjMemRec, ptr %42, i32 0, i32 1
  %44 = load double, ptr %43, align 8, !tbaa !82
  %45 = fcmp ogt double %41, %44
  br i1 %45, label %46, label %48

46:                                               ; preds = %40, %31
  %47 = load ptr, ptr %15, align 8, !tbaa !11
  call void (ptr, i32, i32, ptr, ptr, ptr, ...) @IDAProcessError(ptr noundef %47, i32 noundef -104, i32 noundef 853, ptr noundef @__func__.IDAInitBS, ptr noundef @.str, ptr noundef @.str.11)
  store i32 -104, ptr %7, align 4
  store i32 1, ptr %19, align 4
  br label %119

48:                                               ; preds = %40
  %49 = load ptr, ptr %14, align 8, !tbaa !13
  %50 = getelementptr inbounds nuw %struct.IDAadjMemRec, ptr %49, i32 0, i32 25
  %51 = load i32, ptr %50, align 8, !tbaa !39
  %52 = icmp ne i32 %51, 0
  br i1 %52, label %55, label %53

53:                                               ; preds = %48
  %54 = load ptr, ptr %15, align 8, !tbaa !11
  call void (ptr, i32, i32, ptr, ptr, ptr, ...) @IDAProcessError(ptr noundef %54, i32 noundef -22, i32 noundef 862, ptr noundef @__func__.IDAInitBS, ptr noundef @.str, ptr noundef @.str.13)
  store i32 -22, ptr %7, align 4
  store i32 1, ptr %19, align 4
  br label %119

55:                                               ; preds = %48
  %56 = load i32, ptr %9, align 4, !tbaa !9
  %57 = load ptr, ptr %14, align 8, !tbaa !13
  %58 = getelementptr inbounds nuw %struct.IDAadjMemRec, ptr %57, i32 0, i32 8
  %59 = load i32, ptr %58, align 8, !tbaa !44
  %60 = icmp sge i32 %56, %59
  br i1 %60, label %61, label %63

61:                                               ; preds = %55
  %62 = load ptr, ptr %15, align 8, !tbaa !11
  call void (ptr, i32, i32, ptr, ptr, ptr, ...) @IDAProcessError(ptr noundef %62, i32 noundef -22, i32 noundef 871, ptr noundef @__func__.IDAInitBS, ptr noundef @.str, ptr noundef @.str.12)
  store i32 -22, ptr %7, align 4
  store i32 1, ptr %19, align 4
  br label %119

63:                                               ; preds = %55
  %64 = load ptr, ptr %14, align 8, !tbaa !13
  %65 = getelementptr inbounds nuw %struct.IDAadjMemRec, ptr %64, i32 0, i32 7
  %66 = load ptr, ptr %65, align 8, !tbaa !42
  store ptr %66, ptr %16, align 8, !tbaa !99
  br label %67

67:                                               ; preds = %77, %63
  %68 = load ptr, ptr %16, align 8, !tbaa !99
  %69 = icmp ne ptr %68, null
  br i1 %69, label %70, label %81

70:                                               ; preds = %67
  %71 = load i32, ptr %9, align 4, !tbaa !9
  %72 = load ptr, ptr %16, align 8, !tbaa !99
  %73 = getelementptr inbounds nuw %struct.IDABMemRec, ptr %72, i32 0, i32 0
  %74 = load i32, ptr %73, align 8, !tbaa !156
  %75 = icmp eq i32 %71, %74
  br i1 %75, label %76, label %77

76:                                               ; preds = %70
  br label %81

77:                                               ; preds = %70
  %78 = load ptr, ptr %16, align 8, !tbaa !99
  %79 = getelementptr inbounds nuw %struct.IDABMemRec, ptr %78, i32 0, i32 17
  %80 = load ptr, ptr %79, align 8, !tbaa !100
  store ptr %80, ptr %16, align 8, !tbaa !99
  br label %67

81:                                               ; preds = %76, %67
  %82 = load ptr, ptr %16, align 8, !tbaa !99
  %83 = getelementptr inbounds nuw %struct.IDABMemRec, ptr %82, i32 0, i32 2
  %84 = load ptr, ptr %83, align 8, !tbaa !102
  store ptr %84, ptr %17, align 8, !tbaa !3
  %85 = load ptr, ptr %17, align 8, !tbaa !3
  %86 = load double, ptr %11, align 8, !tbaa !70
  %87 = load ptr, ptr %12, align 8, !tbaa !71
  %88 = load ptr, ptr %13, align 8, !tbaa !71
  %89 = call i32 @IDAInit(ptr noundef %85, ptr noundef @IDAAres, double noundef %86, ptr noundef %87, ptr noundef %88)
  store i32 %89, ptr %18, align 4, !tbaa !9
  %90 = load i32, ptr %18, align 4, !tbaa !9
  %91 = icmp ne i32 %90, 0
  br i1 %91, label %92, label %94

92:                                               ; preds = %81
  %93 = load i32, ptr %18, align 4, !tbaa !9
  store i32 %93, ptr %7, align 4
  store i32 1, ptr %19, align 4
  br label %119

94:                                               ; preds = %81
  %95 = load ptr, ptr %16, align 8, !tbaa !99
  %96 = getelementptr inbounds nuw %struct.IDABMemRec, ptr %95, i32 0, i32 3
  store i32 1, ptr %96, align 8, !tbaa !164
  %97 = load ptr, ptr %10, align 8, !tbaa !3
  %98 = load ptr, ptr %16, align 8, !tbaa !99
  %99 = getelementptr inbounds nuw %struct.IDABMemRec, ptr %98, i32 0, i32 6
  store ptr %97, ptr %99, align 8, !tbaa !158
  %100 = load double, ptr %11, align 8, !tbaa !70
  %101 = load ptr, ptr %16, align 8, !tbaa !99
  %102 = getelementptr inbounds nuw %struct.IDABMemRec, ptr %101, i32 0, i32 1
  store double %100, ptr %102, align 8, !tbaa !166
  %103 = load ptr, ptr %12, align 8, !tbaa !71
  %104 = call ptr @N_VClone(ptr noundef %103)
  %105 = load ptr, ptr %16, align 8, !tbaa !99
  %106 = getelementptr inbounds nuw %struct.IDABMemRec, ptr %105, i32 0, i32 15
  store ptr %104, ptr %106, align 8, !tbaa !105
  %107 = load ptr, ptr %13, align 8, !tbaa !71
  %108 = call ptr @N_VClone(ptr noundef %107)
  %109 = load ptr, ptr %16, align 8, !tbaa !99
  %110 = getelementptr inbounds nuw %struct.IDABMemRec, ptr %109, i32 0, i32 16
  store ptr %108, ptr %110, align 8, !tbaa !106
  %111 = load ptr, ptr %12, align 8, !tbaa !71
  %112 = load ptr, ptr %16, align 8, !tbaa !99
  %113 = getelementptr inbounds nuw %struct.IDABMemRec, ptr %112, i32 0, i32 15
  %114 = load ptr, ptr %113, align 8, !tbaa !105
  call void @N_VScale(double noundef 1.000000e+00, ptr noundef %111, ptr noundef %114)
  %115 = load ptr, ptr %13, align 8, !tbaa !71
  %116 = load ptr, ptr %16, align 8, !tbaa !99
  %117 = getelementptr inbounds nuw %struct.IDABMemRec, ptr %116, i32 0, i32 16
  %118 = load ptr, ptr %117, align 8, !tbaa !106
  call void @N_VScale(double noundef 1.000000e+00, ptr noundef %115, ptr noundef %118)
  store i32 0, ptr %7, align 4
  store i32 1, ptr %19, align 4
  br label %119

119:                                              ; preds = %94, %92, %61, %53, %46, %29, %22
  call void @llvm.lifetime.end.p0(i64 4, ptr %18) #6
  call void @llvm.lifetime.end.p0(i64 8, ptr %17) #6
  call void @llvm.lifetime.end.p0(i64 8, ptr %16) #6
  call void @llvm.lifetime.end.p0(i64 8, ptr %15) #6
  call void @llvm.lifetime.end.p0(i64 8, ptr %14) #6
  %120 = load i32, ptr %7, align 4
  ret i32 %120
}