; Function Attrs: nounwind uwtable
define i32 @IDAInitBS(ptr noundef %0, i32 noundef %1, ptr noundef %2, double noundef %3, ptr noundef %4, ptr noundef %5) local_unnamed_addr #0 {
  %7 = icmp eq ptr %0, null
  br i1 %7, label %8, label %9

8:                                                ; preds = %6
  tail call void (ptr, i32, i32, ptr, ptr, ptr, ...) @IDAProcessError(ptr noundef null, i32 noundef -20, i32 noundef 832, ptr noundef nonnull @__func__.IDAInitBS, ptr noundef nonnull @.str, ptr noundef nonnull @.str.1) #9
  br label %50

9:                                                ; preds = %6
  %10 = getelementptr inbounds nuw i8, ptr %0, i64 2120
  %11 = load i32, ptr %10, align 8, !tbaa !46
  %12 = icmp eq i32 %11, 0
  br i1 %12, label %13, label %14

13:                                               ; preds = %9
  tail call void (ptr, i32, i32, ptr, ptr, ptr, ...) @IDAProcessError(ptr noundef nonnull %0, i32 noundef -101, i32 noundef 843, ptr noundef nonnull @__func__.IDAInitBS, ptr noundef nonnull @.str, ptr noundef nonnull @.str.5) #9
  br label %50

14:                                               ; preds = %9
  %15 = getelementptr inbounds nuw i8, ptr %0, i64 2112
  %16 = load ptr, ptr %15, align 8, !tbaa !3
  %17 = load double, ptr %16, align 8, !tbaa !59
  %18 = fcmp olt double %3, %17
  br i1 %18, label %23, label %19

19:                                               ; preds = %14
  %20 = getelementptr inbounds nuw i8, ptr %16, i64 8
  %21 = load double, ptr %20, align 8, !tbaa !58
  %22 = fcmp ogt double %3, %21
  br i1 %22, label %23, label %24

23:                                               ; preds = %19, %14
  tail call void (ptr, i32, i32, ptr, ptr, ptr, ...) @IDAProcessError(ptr noundef nonnull %0, i32 noundef -104, i32 noundef 853, ptr noundef nonnull @__func__.IDAInitBS, ptr noundef nonnull @.str, ptr noundef nonnull @.str.11) #9
  br label %50

24:                                               ; preds = %19
  %25 = getelementptr inbounds nuw i8, ptr %16, i64 184
  %26 = load i32, ptr %25, align 8, !tbaa !35
  %.not = icmp eq i32 %26, 0
  br i1 %.not, label %27, label %28

27:                                               ; preds = %24
  tail call void (ptr, i32, i32, ptr, ptr, ptr, ...) @IDAProcessError(ptr noundef nonnull %0, i32 noundef -22, i32 noundef 862, ptr noundef nonnull @__func__.IDAInitBS, ptr noundef nonnull @.str, ptr noundef nonnull @.str.13) #9
  br label %50

28:                                               ; preds = %24
  %29 = getelementptr inbounds nuw i8, ptr %16, i64 56
  %30 = load i32, ptr %29, align 8, !tbaa !40
  %.not45 = icmp slt i32 %1, %30
  br i1 %.not45, label %32, label %31

31:                                               ; preds = %28
  tail call void (ptr, i32, i32, ptr, ptr, ptr, ...) @IDAProcessError(ptr noundef nonnull %0, i32 noundef -22, i32 noundef 871, ptr noundef nonnull @__func__.IDAInitBS, ptr noundef nonnull @.str, ptr noundef nonnull @.str.12) #9
  br label %50

32:                                               ; preds = %28
  %33 = getelementptr inbounds nuw i8, ptr %16, i64 48
  br label %.lr.ph

.lr.ph:                                           ; preds = %.lr.ph, %32
  %.040.sink.in = phi ptr [ %36, %.lr.ph ], [ %33, %32 ]
  %.040.sink = load ptr, ptr %.040.sink.in, align 8, !tbaa !88, !nonnull !144, !noundef !144
  %34 = load i32, ptr %.040.sink, align 8, !tbaa !143
  %35 = icmp eq i32 %1, %34
  %36 = getelementptr inbounds nuw i8, ptr %.040.sink, i64 128
  br i1 %35, label %._crit_edge, label %.lr.ph

._crit_edge:                                      ; preds = %.lr.ph
  %37 = getelementptr inbounds nuw i8, ptr %.040.sink, i64 16
  %38 = load ptr, ptr %37, align 8, !tbaa !89
  %39 = tail call i32 @IDAInit(ptr noundef %38, ptr noundef nonnull @IDAAres, double noundef %3, ptr noundef %4, ptr noundef %5) #9
  %.not47 = icmp eq i32 %39, 0
  br i1 %.not47, label %40, label %50

40:                                               ; preds = %._crit_edge
  %41 = getelementptr inbounds nuw i8, ptr %.040.sink, i64 24
  store i32 1, ptr %41, align 8, !tbaa !146
  %42 = getelementptr inbounds nuw i8, ptr %.040.sink, i64 40
  store ptr %2, ptr %42, align 8, !tbaa !148
  %43 = getelementptr inbounds nuw i8, ptr %.040.sink, i64 8
  store double %3, ptr %43, align 8, !tbaa !147
  %44 = tail call ptr @N_VClone(ptr noundef %4) #9
  %45 = getelementptr inbounds nuw i8, ptr %.040.sink, i64 112
  store ptr %44, ptr %45, align 8, !tbaa !93
  %46 = tail call ptr @N_VClone(ptr noundef %5) #9
  %47 = getelementptr inbounds nuw i8, ptr %.040.sink, i64 120
  store ptr %46, ptr %47, align 8, !tbaa !94
  %48 = load ptr, ptr %45, align 8, !tbaa !93
  tail call void @N_VScale(double noundef 1.000000e+00, ptr noundef %4, ptr noundef %48) #9
  %49 = load ptr, ptr %47, align 8, !tbaa !94
  tail call void @N_VScale(double noundef 1.000000e+00, ptr noundef %5, ptr noundef %49) #9
  br label %50

50:                                               ; preds = %._crit_edge, %40, %31, %27, %23, %13, %8
  %.0 = phi i32 [ -20, %8 ], [ -101, %13 ], [ -104, %23 ], [ -22, %31 ], [ 0, %40 ], [ -22, %27 ], [ %39, %._crit_edge ]
  ret i32 %.0
}